target datalayout = "e-m:e-p270:32:32-p271:32:32-p272:64:64-i64:64-i128:128-f80:128-n8:16:32:64-S128"
target triple = "x86_64-pc-linux-gnu"

%"class.std::__cxx11::basic_string" = type { %"struct.std::__cxx11::basic_string<char>::_Alloc_hider", i64, %union.anon }
%"struct.std::__cxx11::basic_string<char>::_Alloc_hider" = type { ptr }
%union.anon = type { i64, [8 x i8] }
%"class.std::vector" = type { %"struct.std::_Vector_base" }
%"struct.std::_Vector_base" = type { %"struct.std::_Vector_base<std::__cxx11::basic_string<char>, std::allocator<std::__cxx11::basic_string<char>>>::_Vector_impl" }
%"struct.std::_Vector_base<std::__cxx11::basic_string<char>, std::allocator<std::__cxx11::basic_string<char>>>::_Vector_impl" = type { %"struct.std::_Vector_base<std::__cxx11::basic_string<char>, std::allocator<std::__cxx11::basic_string<char>>>::_Vector_impl_data" }
%"struct.std::_Vector_base<std::__cxx11::basic_string<char>, std::allocator<std::__cxx11::basic_string<char>>>::_Vector_impl_data" = type { ptr, ptr, ptr }
%class.cmListFileBacktrace = type { %class.cmConstStack }
%class.cmConstStack = type { %"class.std::shared_ptr" }
%"class.std::shared_ptr" = type { %"class.std::__shared_ptr" }
%"class.std::__shared_ptr" = type { ptr, %"class.std::__shared_count" }
%"class.std::__shared_count" = type { ptr }
%class.cmInstallScriptGenerator = type <{ %class.cmInstallGenerator, %"class.std::__cxx11::basic_string", i8, [7 x i8], ptr, i8, [7 x i8] }>
%class.cmInstallGenerator = type { %class.cmScriptGenerator.base, %"class.std::__cxx11::basic_string", %"class.std::__cxx11::basic_string", i32, i8, i8, %class.cmListFileBacktrace }
%class.cmScriptGenerator.base = type <{ ptr, %"class.std::__cxx11::basic_string", %"class.std::vector", %"class.std::__cxx11::basic_string", ptr, i8 }>
%class.cmScriptGenerator = type <{ ptr, %"class.std::__cxx11::basic_string", %"class.std::vector", %"class.std::__cxx11::basic_string", ptr, i8, [7 x i8] }>

; Function Attrs: mustprogress uwtable
define dso_local noundef zeroext i1 @_ZN24cmInstallScriptGenerator7ComputeEP16cmLocalGenerator(ptr noundef nonnull align 8 dereferenceable(249) %0, ptr noundef %1) unnamed_addr #4 align 2 personality ptr @__gxx_personality_v0 {
  %3 = alloca ptr, align 8
  %4 = alloca ptr, align 8
  %5 = alloca %"class.std::__cxx11::basic_string", align 8
  %6 = alloca ptr, align 8
  %7 = alloca i32, align 4
  store ptr %0, ptr %3, align 8
  store ptr %1, ptr %4, align 8
  %8 = load ptr, ptr %3, align 8
  %9 = load ptr, ptr %4, align 8
  %10 = getelementptr inbounds %class.cmInstallScriptGenerator, ptr %8, i32 0, i32 4
  store ptr %9, ptr %10, align 8
  %11 = getelementptr inbounds %class.cmScriptGenerator, ptr %8, i32 0, i32 5
  %12 = load i8, ptr %11, align 8
  %13 = trunc i8 %12 to i1
  br i1 %13, label %14, label %30

14:                                               ; preds = %2
  %15 = getelementptr inbounds %class.cmInstallScriptGenerator, ptr %8, i32 0, i32 4
  %16 = load ptr, ptr %15, align 8
  %17 = call noundef i32 @_ZNK16cmLocalGenerator15GetPolicyStatusEN10cmPolicies8PolicyIDE(ptr noundef nonnull align 8 dereferenceable(824) %16, i32 noundef 87)
  switch i32 %17, label %29 [
    i32 1, label %18
    i32 0, label %22
    i32 2, label %27
    i32 4, label %27
    i32 3, label %27
  ]

18:                                               ; preds = %14
  %19 = getelementptr inbounds %class.cmInstallScriptGenerator, ptr %8, i32 0, i32 4
  %20 = load ptr, ptr %19, align 8
  call void @_ZN10cmPolicies16GetPolicyWarningB5cxx11ENS_8PolicyIDE(ptr dead_on_unwind writable sret(%"class.std::__cxx11::basic_string") align 8 %5, i32 noundef 87)
  invoke void @_ZNK16cmLocalGenerator12IssueMessageE11MessageTypeRKNSt7__cxx1112basic_stringIcSt11char_traitsIcESaIcEEE(ptr noundef nonnull align 8 dereferenceable(824) %20, i32 noundef 0, ptr noundef nonnull align 8 dereferenceable(32) %5)
          to label %21 unwind label %23

21:                                               ; preds = %18
  call void @_ZNSt7__cxx1112basic_stringIcSt11char_traitsIcESaIcEED1Ev(ptr noundef nonnull align 8 dereferenceable(32) %5) #3
  br label %22

22:                                               ; preds = %21, %14
  br label %29

23:                                               ; preds = %18
  %24 = landingpad { ptr, i32 }
          cleanup
  %25 = extractvalue { ptr, i32 } %24, 0
  store ptr %25, ptr %6, align 8
  %26 = extractvalue { ptr, i32 } %24, 1
  store i32 %26, ptr %7, align 4
  call void @_ZNSt7__cxx1112basic_stringIcSt11char_traitsIcESaIcEED1Ev(ptr noundef nonnull align 8 dereferenceable(32) %5) #3
  br label %31

27:                                               ; preds = %14, %14, %14
  %28 = getelementptr inbounds %class.cmInstallScriptGenerator, ptr %8, i32 0, i32 5
  store i8 1, ptr %28, align 8
  br label %29

29:                                               ; preds = %27, %22, %14
  br label %30

30:                                               ; preds = %29, %2
  ret i1 true

31:                                               ; preds = %23
  %32 = load ptr, ptr %6, align 8
  %33 = load i32, ptr %7, align 4
  %34 = insertvalue { ptr, i32 } poison, ptr %32, 0
  %35 = insertvalue { ptr, i32 } %34, i32 %33, 1
  resume { ptr, i32 } %35
}