; Function Attrs: mustprogress uwtable
define dso_local noundef zeroext i1 @_ZN24cmInstallScriptGenerator7ComputeEP16cmLocalGenerator(ptr nocapture noundef nonnull align 8 dereferenceable(249) %0, ptr noundef %1) unnamed_addr #3 align 2 personality ptr @__gxx_personality_v0 {
  %3 = alloca %"class.std::__cxx11::basic_string", align 8
  %4 = getelementptr inbounds i8, ptr %0, i64 240
  store ptr %1, ptr %4, align 8
  %5 = getelementptr inbounds i8, ptr %0, i64 104
  %6 = load i8, ptr %5, align 8
  %7 = and i8 %6, 1
  %.not = icmp eq i8 %7, 0
  br i1 %.not, label %17, label %8

8:                                                ; preds = %2
  %9 = tail call noundef i32 @_ZNK16cmLocalGenerator15GetPolicyStatusEN10cmPolicies8PolicyIDE(ptr noundef nonnull align 8 dereferenceable(824) %1, i32 noundef 87)
  switch i32 %9, label %17 [
    i32 1, label %10
    i32 3, label %15
    i32 2, label %15
    i32 4, label %15
  ]

10:                                               ; preds = %8
  %11 = load ptr, ptr %4, align 8
  call void @_ZN10cmPolicies16GetPolicyWarningB5cxx11ENS_8PolicyIDE(ptr dead_on_unwind nonnull writable sret(%"class.std::__cxx11::basic_string") align 8 %3, i32 noundef 87)
  invoke void @_ZNK16cmLocalGenerator12IssueMessageE11MessageTypeRKNSt7__cxx1112basic_stringIcSt11char_traitsIcESaIcEEE(ptr noundef nonnull align 8 dereferenceable(824) %11, i32 noundef 0, ptr noundef nonnull align 8 dereferenceable(32) %3)
          to label %12 unwind label %13

12:                                               ; preds = %10
  call void @_ZNSt7__cxx1112basic_stringIcSt11char_traitsIcESaIcEED1Ev(ptr noundef nonnull align 8 dereferenceable(32) %3) #9
  br label %17

13:                                               ; preds = %10
  %14 = landingpad { ptr, i32 }
          cleanup
  call void @_ZNSt7__cxx1112basic_stringIcSt11char_traitsIcESaIcEED1Ev(ptr noundef nonnull align 8 dereferenceable(32) %3) #9
  resume { ptr, i32 } %14

15:                                               ; preds = %8, %8, %8
  %16 = getelementptr inbounds i8, ptr %0, i64 248
  store i8 1, ptr %16, align 8
  br label %17

17:                                               ; preds = %8, %15, %12, %2
  ret i1 true
}